(dp1
cnumpy.core.multiarray
scalar
p2
(cnumpy
dtype
p3
(S'S68'
I0
I1
tRp4
(I3
S'|'
NNNI68
I1
I0
tbS'/Volumes/SD1/DanD/M310016/localization/M310016_2017-06-15_10-52-16_6'
tRp5
(dp6
S'ventral thalamus'
p7
(I0
I39
tp8
sS'primary somatosensory cortex'
p9
(I279
I351
tp10
sS'white matter'
p11
(I40
I47
tp12
sS'above'
p13
(I352
I383
tp14
sS'lateral geniculate'
p15
(I48
I88
tp16
sS'CA3'
p17
(I89
I148
tp18
sS'CA1'
p19
(I190
I268
tp20
sS'dentate gyrus'
p21
(I149
I189
tp22
ssg2
(g3
(S'S68'
I0
I1
tRp23
(I3
S'|'
NNNI68
I1
I0
tbS'/Volumes/SD1/DanD/M310016/localization/M310016_2017-06-15_09-11-15_3'
tRp24
(dp25
S'secondary motor cortex'
p26
(I184
I331
tp27
sS'lateral ventricle'
p28
(I44
I160
tp29
sS'white matter'
p30
(I161
I183
tp31
sg13
(I332
I383
tp32
sS'fimbria'
p33
(I0
I43
tp34
ssg2
(g3
(S'S68'
I0
I1
tRp35
(I3
S'|'
NNNI68
I1
I0
tbS'/Volumes/SD1/DanD/M310016/localization/M310016_2017-06-15_08-43-17_2'
tRp36
(dp37
S'caudate putamen'
p38
(I72
I185
tp39
sS'primary motor cortex'
p40
(I215
I345
tp41
sS'white matter'
p42
(I186
I214
tp43
sg13
(I346
I383
tp44
sS'globus pallidus'
p45
(I0
I71
tp46
ssg2
(g3
(S'S69'
I0
I1
tRp47
(I3
S'|'
NNNI69
I1
I0
tbS'/Volumes/SD1/DanD/M310016/localization/M310016_2017-06-15_09-55-55_4b'
tRp48
(dp49
S'primary somatosensory cortex'
p50
(I268
I339
tp51
sS'lateral ventricle'
p52
(I147
I243
tp53
sS'white matter'
p54
(I244
I267
tp55
sg13
(I340
I383
tp56
sS'VPM'
p57
(I0
I37
tp58
sS'LDVL'
p59
(I69
I104
tp60
sg33
(I105
I146
tp61
sS'Po'
p62
(I38
I68
tp63
ssg2
(g3
(S'S68'
I0
I1
tRp64
(I3
S'|'
NNNI68
I1
I0
tbS'/Volumes/SD1/DanD/M310016/localization/M310016_2017-06-15_11-21-18_7'
tRp65
(dp66
S'lateral posterior'
p67
(I80
I103
tp68
sS'white matter'
p69
(I269
I278
tp70
sg13
(I344
I383
tp71
sS'ventral thalamus'
p72
(I0
I33
tp73
sg19
(I179
I268
tp74
sS'dentate gyrus'
p75
(I104
I178
tp76
sS'parietal cortex'
p77
(I279
I343
tp78
sg62
(I34
I79
tp79
ssg2
(g3
(S'S68'
I0
I1
tRp80
(I3
S'|'
NNNI68
I1
I0
tbS'/Volumes/SD1/DanD/M310016/localization/M310016_2017-06-15_11-51-37_8'
tRp81
(dp82
S'caudate putamen'
p83
(I0
I191
tp84
sS'primary somatosensory cortex'
p85
(I220
I353
tp86
sS'white matter'
p87
(I192
I219
tp88
sg13
(I354
I383
tp89
ssg2
(g3
(S'S68'
I0
I1
tRp90
(I3
S'|'
NNNI68
I1
I0
tbS'/Volumes/SD1/DanD/M310016/localization/M310016_2017-06-15_09-44-15_4'
tRp91
(dp92
S'primary somatosensory cortex'
p93
(I268
I339
tp94
sS'lateral ventricle'
p95
(I147
I243
tp96
sS'white matter'
p97
(I244
I267
tp98
sg13
(I340
I383
tp99
sg57
(I0
I37
tp100
sg59
(I69
I104
tp101
sg33
(I105
I146
tp102
sg62
(I38
I68
tp103
ssg2
(g3
(S'S68'
I0
I1
tRp104
(I3
S'|'
NNNI68
I1
I0
tbS'/Volumes/SD1/DanD/M310016/localization/M310016_2017-06-15_10-25-04_5'
tRp105
(dp106
S'ventral thalamus'
p107
(I23
I131
tp108
sS'lateral ventricle'
p109
(I242
I262
tp110
sS'white matter'
p111
(I263
I274
tp112
sg13
(I352
I383
tp113
sS'lateral dorsal'
p114
(I132
I179
tp115
sS'zona incerta'
p116
(I0
I22
tp117
sS'primary motor cortex'
p118
(I275
I351
tp119
sg33
(I180
I241
tp120
ssg2
(g3
(S'S68'
I0
I1
tRp121
(I3
S'|'
NNNI68
I1
I0
tbS'/Volumes/SD1/DanD/M310016/localization/M310016_2017-06-15_08-10-38_1'
tRp122
(dp123
S'nucleus accumbens'
p124
(I0
I20
tp125
sS'caudate putamen'
p126
(I21
I171
tp127
sS'primary motor cortex'
p128
(I202
I350
tp129
sS'white matter'
p130
(I172
I201
tp131
sg13
(I351
I383
tp132
ssS'/Volumes/SD1/DanD/M270512/270512_2016-12-16_10-51-44'
p133
(dp134
g13
(I318
I383
tp135
sS'primary visual cortex'
p136
(I191
I353
tp137
sS'subiculum'
p138
(I143
I174
tp139
sS'white matter'
p140
(I175
I190
tp141
sS'dentate gyrus'
p142
(I59
I142
tp143
sS'medial geniculate'
p144
(I0
I58
tp145
ss.